target datalayout = "e-m:e-p270:32:32-p271:32:32-p272:64:64-i64:64-i128:128-f80:128-n8:16:32:64-S128"
target triple = "x86_64-pc-linux-gnu"

%struct._zend_output_globals = type { %struct._zend_stack, ptr, ptr, ptr, i32, i32 }
%struct._zend_stack = type { i32, i32, i32, ptr }
%struct._zend_array = type { %struct._zend_refcounted_h, %union.anon.0, i32, %union.anon.1, i32, i32, i32, i32, i64, ptr }
%struct._zend_refcounted_h = type { i32, %union.anon }
%union.anon = type { i32 }
%union.anon.0 = type { i32 }
%union.anon.1 = type { ptr }
%struct._zend_executor_globals = type { %struct._zval_struct, %struct._zval_struct, [32 x ptr], ptr, ptr, %struct._zend_array, %struct._zend_array, ptr, i32, i8, %struct._zval_struct, i32, ptr, ptr, ptr, ptr, ptr, ptr, i64, ptr, ptr, i32, ptr, i32, i64, i32, i32, i32, i8, i8, %struct.zend_atomic_bool_s, %struct.zend_atomic_bool_s, ptr, i64, ptr, ptr, %struct._zend_array, %struct._zend_array, i32, i8, %struct._zval_struct, %struct._zval_struct, %struct._zend_stack, %struct._zend_stack, %struct._zend_stack, ptr, i32, i32, i64, ptr, ptr, ptr, %struct._zend_objects_store, %struct._zend_lazy_objects_store, ptr, ptr, ptr, [3 x %struct._zend_op], ptr, i8, i8, i64, i32, i32, ptr, [16 x %struct._HashTableIterator], ptr, %union._zend_function, %struct._zend_op, %struct._zend_array, i64, %struct.zend_get_gc_buffer, ptr, ptr, ptr, i64, i8, i32, ptr, ptr, i64, %struct._zend_call_stack, i64, i64, %struct._zend_strtod_state, [6 x ptr] }
%struct.zend_atomic_bool_s = type { i8 }
%struct._zval_struct = type { %union._zend_value, %union.anon.4, %union.anon.7 }
%union._zend_value = type { i64 }
%union.anon.4 = type { i32 }
%union.anon.7 = type { i32 }
%struct._zend_objects_store = type { ptr, i32, i32, i32 }
%struct._zend_lazy_objects_store = type { %struct._zend_array }
%struct._HashTableIterator = type { ptr, i32, i32 }
%union._zend_function = type { %struct._zend_op_array }
%struct._zend_op_array = type { i8, [3 x i8], i32, ptr, ptr, ptr, i32, i32, ptr, ptr, ptr, ptr, i32, ptr, i32, i32, i32, ptr, ptr, ptr, ptr, ptr, i32, i32, ptr, ptr, ptr, i32, i32, i32, i32, ptr, ptr, [6 x ptr] }
%struct._zend_op = type { ptr, %union._znode_op, %union._znode_op, %union._znode_op, i32, i32, i8, i8, i8, i8 }
%union._znode_op = type { i32 }
%struct.zend_get_gc_buffer = type { ptr, ptr, ptr }
%struct._zend_call_stack = type { ptr, i64 }
%struct._zend_strtod_state = type { [8 x ptr], ptr, ptr }
%struct._zend_execute_data = type { ptr, ptr, ptr, ptr, %struct._zval_struct, ptr, ptr, ptr, ptr }

@output_globals = dso_local global %struct._zend_output_globals zeroinitializer, align 8
@.str = private unnamed_addr constant [15 x i8] c"ref.outcontrol\00", align 1
@executor_globals = external global %struct._zend_executor_globals, align 8
@.str.13 = private unnamed_addr constant [64 x i8] c"Failed to delete and flush buffer. No buffer to delete or flush\00", align 1

; Function Attrs: nounwind uwtable
define dso_local i32 @php_output_end() #0 {
  %1 = alloca i32, align 4
  %2 = call i32 @php_output_stack_pop(i32 noundef 0)
  %3 = icmp ne i32 %2, 0
  br i1 %3, label %4, label %5

4:                                                ; preds = %0
  store i32 0, ptr %1, align 4
  br label %6

5:                                                ; preds = %0
  store i32 -1, ptr %1, align 4
  br label %6

6:                                                ; preds = %5, %4
  %7 = load i32, ptr %1, align 4
  ret i32 %7
}

; Function Attrs: nounwind uwtable
define hidden void @zif_ob_end_flush(ptr noundef %0, ptr noundef %1) #0 {
  %3 = alloca ptr, align 8
  %4 = alloca ptr, align 8
  store ptr %0, ptr %3, align 8, !tbaa !120
  store ptr %1, ptr %4, align 8, !tbaa !10
  %5 = load ptr, ptr %3, align 8, !tbaa !120
  %6 = getelementptr inbounds nuw %struct._zend_execute_data, ptr %5, i32 0, i32 4
  %7 = getelementptr inbounds nuw %struct._zval_struct, ptr %6, i32 0, i32 2
  %8 = load i32, ptr %7, align 4, !tbaa !12
  %9 = icmp eq i32 %8, 0
  %10 = xor i1 %9, true
  %11 = xor i1 %10, true
  %12 = zext i1 %11 to i32
  %13 = sext i32 %12 to i64
  %14 = call i64 @llvm.expect.i64(i64 %13, i64 1)
  %15 = icmp ne i64 %14, 0
  br i1 %15, label %16, label %17

16:                                               ; preds = %2
  br label %18

17:                                               ; preds = %2
  call void @zend_wrong_parameters_none_error()
  br label %18

18:                                               ; preds = %17, %16
  %19 = phi i32 [ 0, %16 ], [ -1, %17 ]
  %20 = icmp eq i32 %19, -1
  br i1 %20, label %21, label %26

21:                                               ; preds = %18
  br label %22

22:                                               ; preds = %21
  %23 = load ptr, ptr getelementptr inbounds nuw (%struct._zend_executor_globals, ptr @executor_globals, i32 0, i32 54), align 8, !tbaa !121
  %24 = icmp ne ptr %23, null
  call void @llvm.assume(i1 %24)
  br label %45

25:                                               ; No predecessors!
  br label %26

26:                                               ; preds = %25, %18
  %27 = load ptr, ptr getelementptr inbounds nuw (%struct._zend_output_globals, ptr @output_globals, i32 0, i32 1), align 8, !tbaa !29
  %28 = icmp ne ptr %27, null
  br i1 %28, label %36, label %29

29:                                               ; preds = %26
  call void (ptr, i32, ptr, ...) @php_error_docref(ptr noundef @.str, i32 noundef 8, ptr noundef @.str.13)
  br label %30

30:                                               ; preds = %29
  br label %31

31:                                               ; preds = %30
  %32 = load ptr, ptr %4, align 8, !tbaa !10
  %33 = getelementptr inbounds nuw %struct._zval_struct, ptr %32, i32 0, i32 1
  store i32 2, ptr %33, align 8, !tbaa !12
  br label %34

34:                                               ; preds = %31
  br label %45

35:                                               ; No predecessors!
  br label %36

36:                                               ; preds = %35, %26
  br label %37

37:                                               ; preds = %36
  br label %38

38:                                               ; preds = %37
  %39 = call i32 @php_output_end()
  %40 = icmp eq i32 0, %39
  %41 = select i1 %40, i32 3, i32 2
  %42 = load ptr, ptr %4, align 8, !tbaa !10
  %43 = getelementptr inbounds nuw %struct._zval_struct, ptr %42, i32 0, i32 1
  store i32 %41, ptr %43, align 8, !tbaa !12
  br label %44

44:                                               ; preds = %38
  br label %45

45:                                               ; preds = %22, %34, %44
  ret void
}