; Function Attrs: nounwind uwtable
define hidden void @zif_ob_end_flush(ptr noundef readonly captures(none) %0, ptr noundef writeonly captures(none) %1) local_unnamed_addr #0 {
  %3 = getelementptr inbounds nuw i8, ptr %0, i64 44
  %4 = load i32, ptr %3, align 4, !tbaa !8
  %.not = icmp eq i32 %4, 0
  br i1 %.not, label %.critedge, label %5, !prof !113

5:                                                ; preds = %2
  tail call void @zend_wrong_parameters_none_error() #22
  %6 = load ptr, ptr getelementptr inbounds nuw (i8, ptr @executor_globals, i64 960), align 8, !tbaa !112
  %7 = icmp ne ptr %6, null
  tail call void @llvm.assume(i1 %7)
  br label %15

.critedge:                                        ; preds = %2
  %8 = load ptr, ptr getelementptr inbounds nuw (i8, ptr @output_globals, i64 24), align 8, !tbaa !46
  %.not3 = icmp eq ptr %8, null
  br i1 %.not3, label %9, label %11

9:                                                ; preds = %.critedge
  tail call void (ptr, i32, ptr, ...) @php_error_docref(ptr noundef nonnull @.str, i32 noundef 8, ptr noundef nonnull @.str.13) #22
  %10 = getelementptr inbounds nuw i8, ptr %1, i64 8
  store i32 2, ptr %10, align 8, !tbaa !8
  br label %15

11:                                               ; preds = %.critedge
  %12 = tail call fastcc i32 @php_output_stack_pop(i32 noundef 0)
  %.not4 = icmp eq i32 %12, 0
  %13 = select i1 %.not4, i32 2, i32 3
  %14 = getelementptr inbounds nuw i8, ptr %1, i64 8
  store i32 %13, ptr %14, align 8, !tbaa !8
  br label %15

15:                                               ; preds = %11, %9, %5
  ret void
}